; Function Attrs: mustprogress uwtable
define dso_local noundef zeroext i1 @_ZN9struct_pb8internal14deserialize_toIN22protobuf_test_messages6proto314EnumOnlyProto3EEEbRT_PKcmRNS_13UnknownFieldsE(ptr nocapture nonnull readnone align 1 %t, ptr noundef %data, i64 noundef %size, ptr noundef nonnull align 8 dereferenceable(24) %unknown_fields) local_unnamed_addr #0 {
entry:
  %pos = alloca i64, align 8
  %cmp.not = icmp eq i64 %size, 0
  br i1 %cmp.not, label %return, label %land.lhs.true.i

land.lhs.true.i:                                  ; preds = %entry
  %0 = load i8, ptr %data, align 1
  %conv.i = sext i8 %0 to i64
  %and.i = and i64 %conv.i, 128
  %cmp1.i = icmp eq i64 %and.i, 0
  br i1 %cmp1.i, label %if.then.i, label %if.end.i

if.then.i:                                        ; preds = %land.lhs.true.i
  store i64 1, ptr %pos, align 8
  br label %sw.default

if.end.i:                                         ; preds = %land.lhs.true.i
  %cmp4.i = icmp ugt i64 %size, 9
  br i1 %cmp4.i, label %if.then5.i, label %land.rhs.i

if.then5.i:                                       ; preds = %if.end.i
  store i64 1, ptr %pos, align 8
  %1 = and i8 %0, 127
  %and9.i = zext nneg i8 %1 to i64
  %cmp10.i = icmp sgt i8 %0, -1
  br i1 %cmp10.i, label %sw.default, label %if.end12.i

if.end12.i:                                       ; preds = %if.then5.i
  store i64 2, ptr %pos, align 8
  %arrayidx14.i = getelementptr inbounds i8, ptr %data, i64 1
  %2 = load i8, ptr %arrayidx14.i, align 1
  %conv15.i = sext i8 %2 to i64
  %and16.i = shl nsw i64 %conv15.i, 7
  %shl.i = and i64 %and16.i, 16256
  %or.i = or disjoint i64 %shl.i, %and9.i
  %cmp17.i = icmp sgt i8 %2, -1
  br i1 %cmp17.i, label %sw.default, label %if.end19.i

if.end19.i:                                       ; preds = %if.end12.i
  store i64 3, ptr %pos, align 8
  %arrayidx21.i = getelementptr inbounds i8, ptr %data, i64 2
  %3 = load i8, ptr %arrayidx21.i, align 1
  %conv22.i = sext i8 %3 to i64
  %and23.i = shl nsw i64 %conv22.i, 14
  %shl24.i = and i64 %and23.i, 2080768
  %or25.i = or disjoint i64 %shl24.i, %or.i
  %cmp26.i = icmp sgt i8 %3, -1
  br i1 %cmp26.i, label %sw.default, label %if.end28.i

if.end28.i:                                       ; preds = %if.end19.i
  store i64 4, ptr %pos, align 8
  %arrayidx30.i = getelementptr inbounds i8, ptr %data, i64 3
  %4 = load i8, ptr %arrayidx30.i, align 1
  %conv31.i = sext i8 %4 to i64
  %and32.i = shl nsw i64 %conv31.i, 21
  %shl33.i = and i64 %and32.i, 266338304
  %or34.i = or disjoint i64 %shl33.i, %or25.i
  %cmp35.i = icmp sgt i8 %4, -1
  br i1 %cmp35.i, label %sw.default, label %if.end37.i

if.end37.i:                                       ; preds = %if.end28.i
  store i64 5, ptr %pos, align 8
  %arrayidx39.i = getelementptr inbounds i8, ptr %data, i64 4
  %5 = load i8, ptr %arrayidx39.i, align 1
  %conv40.i = sext i8 %5 to i64
  %and41.i = shl nsw i64 %conv40.i, 28
  %shl42.i = and i64 %and41.i, 34091302912
  %or43.i = or disjoint i64 %shl42.i, %or34.i
  %cmp44.i = icmp sgt i8 %5, -1
  br i1 %cmp44.i, label %sw.default, label %if.end46.i

if.end46.i:                                       ; preds = %if.end37.i
  store i64 6, ptr %pos, align 8
  %arrayidx48.i = getelementptr inbounds i8, ptr %data, i64 5
  %6 = load i8, ptr %arrayidx48.i, align 1
  %cmp53.i = icmp sgt i8 %6, -1
  br i1 %cmp53.i, label %sw.default, label %if.end55.i

if.end55.i:                                       ; preds = %if.end46.i
  store i64 7, ptr %pos, align 8
  %arrayidx57.i = getelementptr inbounds i8, ptr %data, i64 6
  %7 = load i8, ptr %arrayidx57.i, align 1
  %cmp62.i = icmp sgt i8 %7, -1
  br i1 %cmp62.i, label %sw.default, label %if.end64.i

if.end64.i:                                       ; preds = %if.end55.i
  store i64 8, ptr %pos, align 8
  %arrayidx66.i = getelementptr inbounds i8, ptr %data, i64 7
  %8 = load i8, ptr %arrayidx66.i, align 1
  %cmp71.i = icmp sgt i8 %8, -1
  br i1 %cmp71.i, label %sw.default, label %if.end73.i

if.end73.i:                                       ; preds = %if.end64.i
  store i64 9, ptr %pos, align 8
  %arrayidx75.i = getelementptr inbounds i8, ptr %data, i64 8
  %9 = load i8, ptr %arrayidx75.i, align 1
  %cmp80.i = icmp sgt i8 %9, -1
  br i1 %cmp80.i, label %sw.default, label %_ZN9struct_pb8internal13decode_varintEPKcRmmS3_.exit

land.rhs.i:                                       ; preds = %if.end.i, %while.body.i
  %val.i.088 = phi i64 [ %or101.i, %while.body.i ], [ 0, %if.end.i ]
  %shift.i.087 = phi i32 [ %add.i, %while.body.i ], [ 0, %if.end.i ]
  %10 = phi i64 [ %inc96.i, %while.body.i ], [ 0, %if.end.i ]
  %arrayidx93.i = getelementptr inbounds i8, ptr %data, i64 %10
  %11 = load i8, ptr %arrayidx93.i, align 1
  %cmp95.i = icmp slt i8 %11, 0
  %inc96.i = add i64 %10, 1
  %sh_prom.i = zext nneg i32 %shift.i.087 to i64
  br i1 %cmp95.i, label %while.body.i, label %if.end104.i

while.body.i:                                     ; preds = %land.rhs.i
  %12 = and i8 %11, 127
  %and99.i = zext nneg i8 %12 to i64
  %shl100.i = shl i64 %and99.i, %sh_prom.i
  %or101.i = or i64 %shl100.i, %val.i.088
  %add.i = add i32 %shift.i.087, 7
  %cmp92.i.not = icmp eq i64 %inc96.i, %size
  br i1 %cmp92.i.not, label %return, label %land.rhs.i, !llvm.loop !8

if.end104.i:                                      ; preds = %land.rhs.i
  store i64 %inc96.i, ptr %pos, align 8
  %conv107.i = zext nneg i8 %11 to i64
  %shl109.i = shl i64 %conv107.i, %sh_prom.i
  %or110.i = or i64 %shl109.i, %val.i.088
  br label %sw.default

_ZN9struct_pb8internal13decode_varintEPKcRmmS3_.exit: ; preds = %if.end73.i
  store i64 10, ptr %pos, align 8
  %arrayidx84.i = getelementptr inbounds i8, ptr %data, i64 9
  %13 = load i8, ptr %arrayidx84.i, align 1
  %cmp89.i = icmp sgt i8 %13, -1
  br i1 %cmp89.i, label %sw.default, label %return

sw.default:                                       ; preds = %if.end104.i, %if.end73.i, %if.end64.i, %if.end55.i, %if.end46.i, %if.end37.i, %if.end28.i, %if.end19.i, %if.end12.i, %if.then5.i, %if.then.i, %_ZN9struct_pb8internal13decode_varintEPKcRmmS3_.exit
  %tag.078 = phi i64 [ %or43.i, %_ZN9struct_pb8internal13decode_varintEPKcRmmS3_.exit ], [ %or110.i, %if.end104.i ], [ %or43.i, %if.end73.i ], [ %or43.i, %if.end64.i ], [ %or43.i, %if.end55.i ], [ %or43.i, %if.end46.i ], [ %or43.i, %if.end37.i ], [ %or34.i, %if.end28.i ], [ %or25.i, %if.end19.i ], [ %or.i, %if.end12.i ], [ %and9.i, %if.then5.i ], [ %conv.i, %if.then.i ]
  %conv = trunc i64 %tag.078 to i32
  %call1 = call noundef zeroext i1 @_ZN9struct_pb8internal19deserialize_unknownEPKcRmmjRNS_13UnknownFieldsE(ptr noundef nonnull %data, ptr noundef nonnull align 8 dereferenceable(8) %pos, i64 noundef %size, i32 noundef %conv, ptr noundef nonnull align 8 dereferenceable(24) %unknown_fields)
  br label %return

return:                                           ; preds = %while.body.i, %entry, %_ZN9struct_pb8internal13decode_varintEPKcRmmS3_.exit, %sw.default
  %retval.0 = phi i1 [ %call1, %sw.default ], [ false, %_ZN9struct_pb8internal13decode_varintEPKcRmmS3_.exit ], [ true, %entry ], [ false, %while.body.i ]
  ret i1 %retval.0
}